target datalayout = "e-m:e-p270:32:32-p271:32:32-p272:64:64-i64:64-i128:128-f80:128-n8:16:32:64-S128"
target triple = "x86_64-pc-linux-gnu"

; Function Attrs: nounwind uwtable
define zeroext i16 @stb__Quantize5(float noundef %0) #0 {
  %2 = alloca float, align 4
  %3 = alloca i16, align 2
  store float %0, ptr %2, align 4, !tbaa !23
  call void @llvm.lifetime.start.p0(i64 2, ptr %3) #4
  %4 = load float, ptr %2, align 4, !tbaa !23
  %5 = fcmp olt float %4, 0.000000e+00
  br i1 %5, label %6, label %7

6:                                                ; preds = %1
  br label %15

7:                                                ; preds = %1
  %8 = load float, ptr %2, align 4, !tbaa !23
  %9 = fcmp ogt float %8, 1.000000e+00
  br i1 %9, label %10, label %11

10:                                               ; preds = %7
  br label %13

11:                                               ; preds = %7
  %12 = load float, ptr %2, align 4, !tbaa !23
  br label %13

13:                                               ; preds = %11, %10
  %14 = phi float [ 1.000000e+00, %10 ], [ %12, %11 ]
  br label %15

15:                                               ; preds = %13, %6
  %16 = phi float [ 0.000000e+00, %6 ], [ %14, %13 ]
  store float %16, ptr %2, align 4, !tbaa !23
  %17 = load float, ptr %2, align 4, !tbaa !23
  %18 = fmul float %17, 3.100000e+01
  %19 = fptoui float %18 to i16
  store i16 %19, ptr %3, align 2, !tbaa !10
  %20 = load float, ptr %2, align 4, !tbaa !23
  %21 = load i16, ptr %3, align 2, !tbaa !10
  %22 = zext i16 %21 to i64
  %23 = getelementptr inbounds nuw [32 x float], ptr @stb__midpoints5, i64 0, i64 %22
  %24 = load float, ptr %23, align 4, !tbaa !23
  %25 = fcmp ogt float %20, %24
  %26 = zext i1 %25 to i32
  %27 = load i16, ptr %3, align 2, !tbaa !10
  %28 = zext i16 %27 to i32
  %29 = add nsw i32 %28, %26
  %30 = trunc i32 %29 to i16
  store i16 %30, ptr %3, align 2, !tbaa !10
  %31 = load i16, ptr %3, align 2, !tbaa !10
  call void @llvm.lifetime.end.p0(i64 2, ptr %3) #4
  ret i16 %31
}